; ModuleID = '51/93.c'
source_filename = "51/93.c"
target datalayout = "e-m:e-p270:32:32-p271:32:32-p272:64:64-i64:64-f80:128-n8:16:32:64-S128"
target triple = "x86_64-pc-linux-gnu"

@.str = private unnamed_addr constant [3 x i8] c"%d\00", align 1
@.str.1 = private unnamed_addr constant [3 x i8] c"%s\00", align 1
@.str.2 = private unnamed_addr constant [4 x i8] c"NO\0A\00", align 1
@.str.3 = private unnamed_addr constant [7 x i8] c"%d\0A%s\0A\00", align 1
@.str.4 = private unnamed_addr constant [4 x i8] c"%s\0A\00", align 1

; Function Attrs: noinline nounwind uwtable
define dso_local i32 @main(i32 %0, i8** %1) #0 {
  %3 = alloca i32, align 4
  %4 = alloca i32, align 4
  %5 = alloca i8**, align 8
  %6 = alloca i32, align 4
  %7 = alloca [700 x i32], align 16
  %8 = alloca i32, align 4
  %9 = alloca i32, align 4
  %10 = alloca i32, align 4
  %11 = alloca i32, align 4
  %12 = alloca i32, align 4
  %13 = alloca [700 x i32], align 16
  %14 = alloca [700 x i8], align 16
  %15 = alloca [700 x [10 x i8]], align 16
  store i32 0, i32* %3, align 4
  store i32 %0, i32* %4, align 4
  store i8** %1, i8*** %5, align 8
  %16 = call i32 (i8*, ...) @__isoc99_scanf(i8* getelementptr inbounds ([3 x i8], [3 x i8]* @.str, i64 0, i64 0), i32* %8)
  %17 = getelementptr inbounds [700 x i8], [700 x i8]* %14, i64 0, i64 0
  %18 = call i32 (i8*, ...) @__isoc99_scanf(i8* getelementptr inbounds ([3 x i8], [3 x i8]* @.str.1, i64 0, i64 0), i8* %17)
  %19 = getelementptr inbounds [700 x i8], [700 x i8]* %14, i64 0, i64 0
  %20 = call i64 @strlen(i8* %19) #3
  %21 = trunc i64 %20 to i32
  store i32 %21, i32* %10, align 4
  store i32 0, i32* %9, align 4
  br label %22

22:                                               ; preds = %30, %2
  %23 = load i32, i32* %9, align 4
  %24 = load i32, i32* %10, align 4
  %25 = icmp slt i32 %23, %24
  br i1 %25, label %26, label %33

26:                                               ; preds = %22
  %27 = load i32, i32* %9, align 4
  %28 = sext i32 %27 to i64
  %29 = getelementptr inbounds [700 x i32], [700 x i32]* %13, i64 0, i64 %28
  store i32 1, i32* %29, align 4
  br label %30

30:                                               ; preds = %26
  %31 = load i32, i32* %9, align 4
  %32 = add nsw i32 %31, 1
  store i32 %32, i32* %9, align 4
  br label %22

33:                                               ; preds = %22
  store i32 0, i32* %9, align 4
  br label %34

34:                                               ; preds = %76, %33
  %35 = load i32, i32* %9, align 4
  %36 = load i32, i32* %10, align 4
  %37 = load i32, i32* %8, align 4
  %38 = sub nsw i32 %36, %37
  %39 = add nsw i32 %38, 1
  %40 = icmp slt i32 %35, %39
  br i1 %40, label %41, label %79

41:                                               ; preds = %34
  store i32 0, i32* %12, align 4
  br label %42

42:                                               ; preds = %72, %41
  %43 = load i32, i32* %12, align 4
  %44 = load i32, i32* %8, align 4
  %45 = add nsw i32 %44, 1
  %46 = icmp slt i32 %43, %45
  br i1 %46, label %47, label %75

47:                                               ; preds = %42
  %48 = load i32, i32* %12, align 4
  %49 = load i32, i32* %8, align 4
  %50 = icmp ne i32 %48, %49
  br i1 %50, label %51, label %64

51:                                               ; preds = %47
  %52 = load i32, i32* %9, align 4
  %53 = load i32, i32* %12, align 4
  %54 = add nsw i32 %52, %53
  %55 = sext i32 %54 to i64
  %56 = getelementptr inbounds [700 x i8], [700 x i8]* %14, i64 0, i64 %55
  %57 = load i8, i8* %56, align 1
  %58 = load i32, i32* %9, align 4
  %59 = sext i32 %58 to i64
  %60 = getelementptr inbounds [700 x [10 x i8]], [700 x [10 x i8]]* %15, i64 0, i64 %59
  %61 = load i32, i32* %12, align 4
  %62 = sext i32 %61 to i64
  %63 = getelementptr inbounds [10 x i8], [10 x i8]* %60, i64 0, i64 %62
  store i8 %57, i8* %63, align 1
  br label %71

64:                                               ; preds = %47
  %65 = load i32, i32* %9, align 4
  %66 = sext i32 %65 to i64
  %67 = getelementptr inbounds [700 x [10 x i8]], [700 x [10 x i8]]* %15, i64 0, i64 %66
  %68 = load i32, i32* %12, align 4
  %69 = sext i32 %68 to i64
  %70 = getelementptr inbounds [10 x i8], [10 x i8]* %67, i64 0, i64 %69
  store i8 0, i8* %70, align 1
  br label %71

71:                                               ; preds = %64, %51
  br label %72

72:                                               ; preds = %71
  %73 = load i32, i32* %12, align 4
  %74 = add nsw i32 %73, 1
  store i32 %74, i32* %12, align 4
  br label %42

75:                                               ; preds = %42
  br label %76

76:                                               ; preds = %75
  %77 = load i32, i32* %9, align 4
  %78 = add nsw i32 %77, 1
  store i32 %78, i32* %9, align 4
  br label %34

79:                                               ; preds = %34
  store i32 0, i32* %9, align 4
  br label %80

80:                                               ; preds = %119, %79
  %81 = load i32, i32* %9, align 4
  %82 = load i32, i32* %10, align 4
  %83 = load i32, i32* %8, align 4
  %84 = sub nsw i32 %82, %83
  %85 = add nsw i32 %84, 1
  %86 = icmp slt i32 %81, %85
  br i1 %86, label %87, label %122

87:                                               ; preds = %80
  %88 = load i32, i32* %9, align 4
  %89 = add nsw i32 %88, 1
  store i32 %89, i32* %12, align 4
  br label %90

90:                                               ; preds = %115, %87
  %91 = load i32, i32* %12, align 4
  %92 = load i32, i32* %10, align 4
  %93 = load i32, i32* %8, align 4
  %94 = sub nsw i32 %92, %93
  %95 = add nsw i32 %94, 1
  %96 = icmp slt i32 %91, %95
  br i1 %96, label %97, label %118

97:                                               ; preds = %90
  %98 = load i32, i32* %9, align 4
  %99 = sext i32 %98 to i64
  %100 = getelementptr inbounds [700 x [10 x i8]], [700 x [10 x i8]]* %15, i64 0, i64 %99
  %101 = getelementptr inbounds [10 x i8], [10 x i8]* %100, i64 0, i64 0
  %102 = load i32, i32* %12, align 4
  %103 = sext i32 %102 to i64
  %104 = getelementptr inbounds [700 x [10 x i8]], [700 x [10 x i8]]* %15, i64 0, i64 %103
  %105 = getelementptr inbounds [10 x i8], [10 x i8]* %104, i64 0, i64 0
  %106 = call i32 @strcmp(i8* %101, i8* %105) #3
  %107 = icmp eq i32 %106, 0
  br i1 %107, label %108, label %114

108:                                              ; preds = %97
  %109 = load i32, i32* %9, align 4
  %110 = sext i32 %109 to i64
  %111 = getelementptr inbounds [700 x i32], [700 x i32]* %13, i64 0, i64 %110
  %112 = load i32, i32* %111, align 4
  %113 = add nsw i32 %112, 1
  store i32 %113, i32* %111, align 4
  br label %114

114:                                              ; preds = %108, %97
  br label %115

115:                                              ; preds = %114
  %116 = load i32, i32* %12, align 4
  %117 = add nsw i32 %116, 1
  store i32 %117, i32* %12, align 4
  br label %90

118:                                              ; preds = %90
  br label %119

119:                                              ; preds = %118
  %120 = load i32, i32* %9, align 4
  %121 = add nsw i32 %120, 1
  store i32 %121, i32* %9, align 4
  br label %80

122:                                              ; preds = %80
  store i32 1, i32* %6, align 4
  store i32 -1, i32* %11, align 4
  store i32 0, i32* %9, align 4
  br label %123

123:                                              ; preds = %165, %122
  %124 = load i32, i32* %9, align 4
  %125 = load i32, i32* %10, align 4
  %126 = load i32, i32* %8, align 4
  %127 = sub nsw i32 %125, %126
  %128 = add nsw i32 %127, 1
  %129 = icmp slt i32 %124, %128
  br i1 %129, label %130, label %168

130:                                              ; preds = %123
  %131 = load i32, i32* %9, align 4
  %132 = sext i32 %131 to i64
  %133 = getelementptr inbounds [700 x i32], [700 x i32]* %13, i64 0, i64 %132
  %134 = load i32, i32* %133, align 4
  %135 = load i32, i32* %6, align 4
  %136 = icmp sgt i32 %134, %135
  br i1 %136, label %137, label %146

137:                                              ; preds = %130
  %138 = load i32, i32* %9, align 4
  %139 = sext i32 %138 to i64
  %140 = getelementptr inbounds [700 x i32], [700 x i32]* %13, i64 0, i64 %139
  %141 = load i32, i32* %140, align 4
  store i32 %141, i32* %6, align 4
  store i32 0, i32* %11, align 4
  %142 = load i32, i32* %9, align 4
  %143 = load i32, i32* %11, align 4
  %144 = sext i32 %143 to i64
  %145 = getelementptr inbounds [700 x i32], [700 x i32]* %7, i64 0, i64 %144
  store i32 %142, i32* %145, align 4
  br label %164

146:                                              ; preds = %130
  %147 = load i32, i32* %9, align 4
  %148 = sext i32 %147 to i64
  %149 = getelementptr inbounds [700 x i32], [700 x i32]* %13, i64 0, i64 %148
  %150 = load i32, i32* %149, align 4
  %151 = load i32, i32* %6, align 4
  %152 = icmp eq i32 %150, %151
  br i1 %152, label %153, label %163

153:                                              ; preds = %146
  %154 = load i32, i32* %6, align 4
  %155 = icmp ne i32 %154, 1
  br i1 %155, label %156, label %163

156:                                              ; preds = %153
  %157 = load i32, i32* %11, align 4
  %158 = add nsw i32 %157, 1
  store i32 %158, i32* %11, align 4
  %159 = load i32, i32* %9, align 4
  %160 = load i32, i32* %11, align 4
  %161 = sext i32 %160 to i64
  %162 = getelementptr inbounds [700 x i32], [700 x i32]* %7, i64 0, i64 %161
  store i32 %159, i32* %162, align 4
  br label %163

163:                                              ; preds = %156, %153, %146
  br label %164

164:                                              ; preds = %163, %137
  br label %165

165:                                              ; preds = %164
  %166 = load i32, i32* %9, align 4
  %167 = add nsw i32 %166, 1
  store i32 %167, i32* %9, align 4
  br label %123

168:                                              ; preds = %123
  %169 = load i32, i32* %11, align 4
  %170 = icmp eq i32 %169, -1
  br i1 %170, label %171, label %173

171:                                              ; preds = %168
  %172 = call i32 (i8*, ...) @printf(i8* getelementptr inbounds ([4 x i8], [4 x i8]* @.str.2, i64 0, i64 0))
  br label %207

173:                                              ; preds = %168
  store i32 0, i32* %9, align 4
  br label %174

174:                                              ; preds = %203, %173
  %175 = load i32, i32* %9, align 4
  %176 = load i32, i32* %11, align 4
  %177 = icmp sle i32 %175, %176
  br i1 %177, label %178, label %206

178:                                              ; preds = %174
  %179 = load i32, i32* %9, align 4
  %180 = icmp eq i32 %179, 0
  br i1 %180, label %181, label %193

181:                                              ; preds = %178
  %182 = getelementptr inbounds [700 x i32], [700 x i32]* %7, i64 0, i64 0
  %183 = load i32, i32* %182, align 16
  %184 = sext i32 %183 to i64
  %185 = getelementptr inbounds [700 x i32], [700 x i32]* %13, i64 0, i64 %184
  %186 = load i32, i32* %185, align 4
  %187 = getelementptr inbounds [700 x i32], [700 x i32]* %7, i64 0, i64 0
  %188 = load i32, i32* %187, align 16
  %189 = sext i32 %188 to i64
  %190 = getelementptr inbounds [700 x [10 x i8]], [700 x [10 x i8]]* %15, i64 0, i64 %189
  %191 = getelementptr inbounds [10 x i8], [10 x i8]* %190, i64 0, i64 0
  %192 = call i32 (i8*, ...) @printf(i8* getelementptr inbounds ([7 x i8], [7 x i8]* @.str.3, i64 0, i64 0), i32 %186, i8* %191)
  br label %202

193:                                              ; preds = %178
  %194 = load i32, i32* %9, align 4
  %195 = sext i32 %194 to i64
  %196 = getelementptr inbounds [700 x i32], [700 x i32]* %7, i64 0, i64 %195
  %197 = load i32, i32* %196, align 4
  %198 = sext i32 %197 to i64
  %199 = getelementptr inbounds [700 x [10 x i8]], [700 x [10 x i8]]* %15, i64 0, i64 %198
  %200 = getelementptr inbounds [10 x i8], [10 x i8]* %199, i64 0, i64 0
  %201 = call i32 (i8*, ...) @printf(i8* getelementptr inbounds ([4 x i8], [4 x i8]* @.str.4, i64 0, i64 0), i8* %200)
  br label %202

202:                                              ; preds = %193, %181
  br label %203

203:                                              ; preds = %202
  %204 = load i32, i32* %9, align 4
  %205 = add nsw i32 %204, 1
  store i32 %205, i32* %9, align 4
  br label %174

206:                                              ; preds = %174
  br label %207

207:                                              ; preds = %206, %171
  ret i32 0
}

declare dso_local i32 @__isoc99_scanf(i8*, ...) #1

; Function Attrs: nounwind readonly
declare dso_local i64 @strlen(i8*) #2

; Function Attrs: nounwind readonly
declare dso_local i32 @strcmp(i8*, i8*) #2

declare dso_local i32 @printf(i8*, ...) #1


!llvm.module.flags = !{!0}
!llvm.ident = !{!1}

!0 = !{i32 1, !"wchar_size", i32 4}
!1 = !{!"clang version 10.0.0-4ubuntu1 "}
